; Function Attrs: nounwind uwtable
define ptr @ASN1_item_d2i_bio_ex(ptr noundef %0, ptr noundef %1, ptr noundef %2, ptr noundef %3, ptr noundef %4) local_unnamed_addr #0 {
  %6 = alloca ptr, align 8
  %7 = alloca ptr, align 8
  call void @llvm.lifetime.start.p0(i64 8, ptr nonnull %6) #4
  store ptr null, ptr %6, align 8, !tbaa !3
  call void @llvm.lifetime.start.p0(i64 8, ptr nonnull %7) #4
  %8 = icmp eq ptr %1, null
  br i1 %8, label %18, label %9

9:                                                ; preds = %5
  %10 = call i32 @asn1_d2i_read_bio(ptr noundef nonnull %1, ptr noundef nonnull %6)
  %11 = icmp slt i32 %10, 0
  %.pre = load ptr, ptr %6, align 8, !tbaa !3
  br i1 %11, label %17, label %12

12:                                               ; preds = %9
  %13 = getelementptr inbounds nuw i8, ptr %.pre, i64 8
  %14 = load ptr, ptr %13, align 8, !tbaa !8
  store ptr %14, ptr %7, align 8, !tbaa !12
  %15 = zext nneg i32 %10 to i64
  %16 = call ptr @ASN1_item_d2i_ex(ptr noundef %2, ptr noundef nonnull %7, i64 noundef %15, ptr noundef %0, ptr noundef %3, ptr noundef %4) #4
  br label %17

17:                                               ; preds = %9, %12
  %.09 = phi ptr [ null, %9 ], [ %16, %12 ]
  call void @BUF_MEM_free(ptr noundef %.pre) #4
  br label %18

18:                                               ; preds = %5, %17
  %.0 = phi ptr [ %.09, %17 ], [ null, %5 ]
  call void @llvm.lifetime.end.p0(i64 8, ptr nonnull %7) #4
  call void @llvm.lifetime.end.p0(i64 8, ptr nonnull %6) #4
  ret ptr %.0
}